target datalayout = "e-m:e-p270:32:32-p271:32:32-p272:64:64-i64:64-i128:128-f80:128-n8:16:32:64-S128"
target triple = "x86_64-pc-linux-gnu"

%struct.TupleTableSlotOps = type { i64, ptr, ptr, ptr, ptr, ptr, ptr, ptr, ptr, ptr, ptr, ptr, ptr }
%struct.StringInfoData = type { ptr, i32, i32, i32 }
%struct.LogicalRepTupleData = type { ptr, ptr, i32 }
%struct.LogicalRepRelMapEntry = type { %struct.LogicalRepRelation, i8, i32, ptr, ptr, i8, i32, i8, i64 }
%struct.LogicalRepRelation = type { i32, ptr, ptr, i32, ptr, ptr, i8, i8, ptr }
%struct.nameData = type { [64 x i8] }
%struct.ApplyErrorCallbackArg = type { i32, ptr, i32, i32, i64, ptr }
%struct.TupleTableSlot = type { i32, i16, i16, ptr, ptr, ptr, ptr, ptr, %struct.ItemPointerData, i32 }
%struct.ItemPointerData = type { %struct.BlockIdData, i16 }
%struct.BlockIdData = type { i16, i16 }
%struct.TupleDescData = type { i32, i32, i32, i32, ptr, [0 x %struct.CompactAttribute] }
%struct.CompactAttribute = type { i32, i16, i8, i8, i8, i8, i8, i8, i8 }
%struct.AttrMap = type { ptr, i32 }
%struct.FormData_pg_attribute = type { i32, %struct.nameData, i32, i16, i16, i32, i16, i8, i8, i8, i8, i8, i8, i8, i8, i8, i8, i8, i16, i32 }

@.str.3 = private unnamed_addr constant [9 x i8] c"worker.c\00", align 1
@apply_error_callback_arg = internal global { i32, [4 x i8], ptr, i32, i32, i64, ptr } { i32 0, [4 x i8] zeroinitializer, ptr null, i32 -1, i32 0, i64 0, ptr null }, align 8
@.str.50 = private unnamed_addr constant [62 x i8] c"incorrect binary data format in logical replication column %d\00", align 1
@__func__.slot_store_data = private unnamed_addr constant [16 x i8] c"slot_store_data\00", align 1

; Function Attrs: inlinehint nounwind uwtable
define internal ptr @TupleDescAttr(ptr noundef %0, i32 noundef %1) #3 {
  %3 = alloca ptr, align 8
  %4 = alloca i32, align 4
  %5 = alloca ptr, align 8
  store ptr %0, ptr %3, align 8
  store i32 %1, ptr %4, align 4
  call void @llvm.lifetime.start.p0(i64 8, ptr %5) #12
  %6 = load ptr, ptr %3, align 8
  %7 = load ptr, ptr %3, align 8
  %8 = getelementptr inbounds nuw %struct.TupleDescData, ptr %7, i32 0, i32 0
  %9 = load i32, ptr %8, align 8
  %10 = sext i32 %9 to i64
  %11 = mul i64 %10, 16
  %12 = add i64 24, %11
  %13 = getelementptr inbounds nuw i8, ptr %6, i64 %12
  store ptr %13, ptr %5, align 8
  %14 = load ptr, ptr %5, align 8
  %15 = load i32, ptr %4, align 4
  %16 = sext i32 %15 to i64
  %17 = getelementptr inbounds %struct.FormData_pg_attribute, ptr %14, i64 %16
  call void @llvm.lifetime.end.p0(i64 8, ptr %5) #12
  ret ptr %17
}

; Function Attrs: inlinehint nounwind uwtable
define internal ptr @ExecClearTuple(ptr noundef %0) #3 {
  %2 = alloca ptr, align 8
  store ptr %0, ptr %2, align 8
  %3 = load ptr, ptr %2, align 8
  %4 = getelementptr inbounds nuw %struct.TupleTableSlot, ptr %3, i32 0, i32 3
  %5 = load ptr, ptr %4, align 8
  %6 = getelementptr inbounds nuw %struct.TupleTableSlotOps, ptr %5, i32 0, i32 3
  %7 = load ptr, ptr %6, align 8
  %8 = load ptr, ptr %2, align 8
  call void %7(ptr noundef %8)
  %9 = load ptr, ptr %2, align 8
  ret ptr %9
}

; Function Attrs: nounwind uwtable
define internal void @slot_store_data(ptr noundef %0, ptr noundef %1, ptr noundef %2) #0 {
  %4 = alloca ptr, align 8
  %5 = alloca ptr, align 8
  %6 = alloca ptr, align 8
  %7 = alloca i32, align 4
  %8 = alloca i32, align 4
  %9 = alloca ptr, align 8
  %10 = alloca i32, align 4
  %11 = alloca ptr, align 8
  %12 = alloca i32, align 4
  %13 = alloca i32, align 4
  %14 = alloca i32, align 4
  %15 = alloca i32, align 4
  store ptr %0, ptr %4, align 8
  store ptr %1, ptr %5, align 8
  store ptr %2, ptr %6, align 8
  call void @llvm.lifetime.start.p0(i64 4, ptr %7) #12
  %16 = load ptr, ptr %4, align 8
  %17 = getelementptr inbounds nuw %struct.TupleTableSlot, ptr %16, i32 0, i32 4
  %18 = load ptr, ptr %17, align 8
  %19 = getelementptr inbounds nuw %struct.TupleDescData, ptr %18, i32 0, i32 0
  %20 = load i32, ptr %19, align 8
  store i32 %20, ptr %7, align 4
  call void @llvm.lifetime.start.p0(i64 4, ptr %8) #12
  %21 = load ptr, ptr %4, align 8
  %22 = call ptr @ExecClearTuple(ptr noundef %21)
  store i32 0, ptr %8, align 4
  br label %23

23:                                               ; preds = %178, %3
  %24 = load i32, ptr %8, align 4
  %25 = load i32, ptr %7, align 4
  %26 = icmp slt i32 %24, %25
  br i1 %26, label %27, label %181

27:                                               ; preds = %23
  call void @llvm.lifetime.start.p0(i64 8, ptr %9) #12
  %28 = load ptr, ptr %4, align 8
  %29 = getelementptr inbounds nuw %struct.TupleTableSlot, ptr %28, i32 0, i32 4
  %30 = load ptr, ptr %29, align 8
  %31 = load i32, ptr %8, align 4
  %32 = call ptr @TupleDescAttr(ptr noundef %30, i32 noundef %31)
  store ptr %32, ptr %9, align 8
  call void @llvm.lifetime.start.p0(i64 4, ptr %10) #12
  %33 = load ptr, ptr %5, align 8
  %34 = getelementptr inbounds nuw %struct.LogicalRepRelMapEntry, ptr %33, i32 0, i32 4
  %35 = load ptr, ptr %34, align 8
  %36 = getelementptr inbounds nuw %struct.AttrMap, ptr %35, i32 0, i32 0
  %37 = load ptr, ptr %36, align 8
  %38 = load i32, ptr %8, align 4
  %39 = sext i32 %38 to i64
  %40 = getelementptr inbounds i16, ptr %37, i64 %39
  %41 = load i16, ptr %40, align 2
  %42 = sext i16 %41 to i32
  store i32 %42, ptr %10, align 4
  %43 = load ptr, ptr %9, align 8
  %44 = getelementptr inbounds nuw %struct.FormData_pg_attribute, ptr %43, i32 0, i32 16
  %45 = load i8, ptr %44, align 1, !range !4, !noundef !5
  %46 = trunc i8 %45 to i1
  br i1 %46, label %164, label %47

47:                                               ; preds = %27
  %48 = load i32, ptr %10, align 4
  %49 = icmp sge i32 %48, 0
  br i1 %49, label %50, label %164

50:                                               ; preds = %47
  call void @llvm.lifetime.start.p0(i64 8, ptr %11) #12
  %51 = load ptr, ptr %6, align 8
  %52 = getelementptr inbounds nuw %struct.LogicalRepTupleData, ptr %51, i32 0, i32 0
  %53 = load ptr, ptr %52, align 8
  %54 = load i32, ptr %10, align 4
  %55 = sext i32 %54 to i64
  %56 = getelementptr inbounds %struct.StringInfoData, ptr %53, i64 %55
  store ptr %56, ptr %11, align 8
  %57 = load i32, ptr %10, align 4
  store i32 %57, ptr getelementptr inbounds nuw (%struct.ApplyErrorCallbackArg, ptr @apply_error_callback_arg, i32 0, i32 2), align 8
  %58 = load ptr, ptr %6, align 8
  %59 = getelementptr inbounds nuw %struct.LogicalRepTupleData, ptr %58, i32 0, i32 1
  %60 = load ptr, ptr %59, align 8
  %61 = load i32, ptr %10, align 4
  %62 = sext i32 %61 to i64
  %63 = getelementptr inbounds i8, ptr %60, i64 %62
  %64 = load i8, ptr %63, align 1
  %65 = sext i8 %64 to i32
  %66 = icmp eq i32 %65, 116
  br i1 %66, label %67, label %92

67:                                               ; preds = %50
  call void @llvm.lifetime.start.p0(i64 4, ptr %12) #12
  call void @llvm.lifetime.start.p0(i64 4, ptr %13) #12
  %68 = load ptr, ptr %9, align 8
  %69 = getelementptr inbounds nuw %struct.FormData_pg_attribute, ptr %68, i32 0, i32 2
  %70 = load i32, ptr %69, align 4
  call void @getTypeInputInfo(i32 noundef %70, ptr noundef %12, ptr noundef %13)
  %71 = load i32, ptr %12, align 4
  %72 = load ptr, ptr %11, align 8
  %73 = getelementptr inbounds nuw %struct.StringInfoData, ptr %72, i32 0, i32 0
  %74 = load ptr, ptr %73, align 8
  %75 = load i32, ptr %13, align 4
  %76 = load ptr, ptr %9, align 8
  %77 = getelementptr inbounds nuw %struct.FormData_pg_attribute, ptr %76, i32 0, i32 5
  %78 = load i32, ptr %77, align 4
  %79 = call i64 @OidInputFunctionCall(i32 noundef %71, ptr noundef %74, i32 noundef %75, i32 noundef %78)
  %80 = load ptr, ptr %4, align 8
  %81 = getelementptr inbounds nuw %struct.TupleTableSlot, ptr %80, i32 0, i32 5
  %82 = load ptr, ptr %81, align 8
  %83 = load i32, ptr %8, align 4
  %84 = sext i32 %83 to i64
  %85 = getelementptr inbounds i64, ptr %82, i64 %84
  store i64 %79, ptr %85, align 8
  %86 = load ptr, ptr %4, align 8
  %87 = getelementptr inbounds nuw %struct.TupleTableSlot, ptr %86, i32 0, i32 6
  %88 = load ptr, ptr %87, align 8
  %89 = load i32, ptr %8, align 4
  %90 = sext i32 %89 to i64
  %91 = getelementptr inbounds i8, ptr %88, i64 %90
  store i8 0, ptr %91, align 1
  call void @llvm.lifetime.end.p0(i64 4, ptr %13) #12
  call void @llvm.lifetime.end.p0(i64 4, ptr %12) #12
  br label %163

92:                                               ; preds = %50
  %93 = load ptr, ptr %6, align 8
  %94 = getelementptr inbounds nuw %struct.LogicalRepTupleData, ptr %93, i32 0, i32 1
  %95 = load ptr, ptr %94, align 8
  %96 = load i32, ptr %10, align 4
  %97 = sext i32 %96 to i64
  %98 = getelementptr inbounds i8, ptr %95, i64 %97
  %99 = load i8, ptr %98, align 1
  %100 = sext i8 %99 to i32
  %101 = icmp eq i32 %100, 98
  br i1 %101, label %102, label %149

102:                                              ; preds = %92
  call void @llvm.lifetime.start.p0(i64 4, ptr %14) #12
  call void @llvm.lifetime.start.p0(i64 4, ptr %15) #12
  %103 = load ptr, ptr %11, align 8
  %104 = getelementptr inbounds nuw %struct.StringInfoData, ptr %103, i32 0, i32 3
  store i32 0, ptr %104, align 8
  %105 = load ptr, ptr %9, align 8
  %106 = getelementptr inbounds nuw %struct.FormData_pg_attribute, ptr %105, i32 0, i32 2
  %107 = load i32, ptr %106, align 4
  call void @getTypeBinaryInputInfo(i32 noundef %107, ptr noundef %14, ptr noundef %15)
  %108 = load i32, ptr %14, align 4
  %109 = load ptr, ptr %11, align 8
  %110 = load i32, ptr %15, align 4
  %111 = load ptr, ptr %9, align 8
  %112 = getelementptr inbounds nuw %struct.FormData_pg_attribute, ptr %111, i32 0, i32 5
  %113 = load i32, ptr %112, align 4
  %114 = call i64 @OidReceiveFunctionCall(i32 noundef %108, ptr noundef %109, i32 noundef %110, i32 noundef %113)
  %115 = load ptr, ptr %4, align 8
  %116 = getelementptr inbounds nuw %struct.TupleTableSlot, ptr %115, i32 0, i32 5
  %117 = load ptr, ptr %116, align 8
  %118 = load i32, ptr %8, align 4
  %119 = sext i32 %118 to i64
  %120 = getelementptr inbounds i64, ptr %117, i64 %119
  store i64 %114, ptr %120, align 8
  %121 = load ptr, ptr %11, align 8
  %122 = getelementptr inbounds nuw %struct.StringInfoData, ptr %121, i32 0, i32 3
  %123 = load i32, ptr %122, align 8
  %124 = load ptr, ptr %11, align 8
  %125 = getelementptr inbounds nuw %struct.StringInfoData, ptr %124, i32 0, i32 1
  %126 = load i32, ptr %125, align 8
  %127 = icmp ne i32 %123, %126
  br i1 %127, label %128, label %142

128:                                              ; preds = %102
  br label %129

129:                                              ; preds = %128
  br i1 true, label %130, label %132

130:                                              ; preds = %129
  %131 = call zeroext i1 @errstart_cold(i32 noundef 21, ptr noundef null) #13
  br i1 %131, label %134, label %139

132:                                              ; preds = %129
  %133 = call zeroext i1 @errstart(i32 noundef 21, ptr noundef null)
  br i1 %133, label %134, label %139

134:                                              ; preds = %132, %130
  %135 = call i32 @errcode(i32 noundef 50462850)
  %136 = load i32, ptr %10, align 4
  %137 = add i32 %136, 1
  %138 = call i32 (ptr, ...) @errmsg(ptr noundef @.str.50, i32 noundef %137)
  call void @errfinish(ptr noundef @.str.3, i32 noundef 852, ptr noundef @__func__.slot_store_data)
  br label %139

139:                                              ; preds = %134, %132, %130
  unreachable

140:                                              ; No predecessors!
  br label %141

141:                                              ; preds = %140
  br label %142

142:                                              ; preds = %141, %102
  %143 = load ptr, ptr %4, align 8
  %144 = getelementptr inbounds nuw %struct.TupleTableSlot, ptr %143, i32 0, i32 6
  %145 = load ptr, ptr %144, align 8
  %146 = load i32, ptr %8, align 4
  %147 = sext i32 %146 to i64
  %148 = getelementptr inbounds i8, ptr %145, i64 %147
  store i8 0, ptr %148, align 1
  call void @llvm.lifetime.end.p0(i64 4, ptr %15) #12
  call void @llvm.lifetime.end.p0(i64 4, ptr %14) #12
  br label %162

149:                                              ; preds = %92
  %150 = load ptr, ptr %4, align 8
  %151 = getelementptr inbounds nuw %struct.TupleTableSlot, ptr %150, i32 0, i32 5
  %152 = load ptr, ptr %151, align 8
  %153 = load i32, ptr %8, align 4
  %154 = sext i32 %153 to i64
  %155 = getelementptr inbounds i64, ptr %152, i64 %154
  store i64 0, ptr %155, align 8
  %156 = load ptr, ptr %4, align 8
  %157 = getelementptr inbounds nuw %struct.TupleTableSlot, ptr %156, i32 0, i32 6
  %158 = load ptr, ptr %157, align 8
  %159 = load i32, ptr %8, align 4
  %160 = sext i32 %159 to i64
  %161 = getelementptr inbounds i8, ptr %158, i64 %160
  store i8 1, ptr %161, align 1
  br label %162

162:                                              ; preds = %149, %142
  br label %163

163:                                              ; preds = %162, %67
  store i32 -1, ptr getelementptr inbounds nuw (%struct.ApplyErrorCallbackArg, ptr @apply_error_callback_arg, i32 0, i32 2), align 8
  call void @llvm.lifetime.end.p0(i64 8, ptr %11) #12
  br label %177

164:                                              ; preds = %47, %27
  %165 = load ptr, ptr %4, align 8
  %166 = getelementptr inbounds nuw %struct.TupleTableSlot, ptr %165, i32 0, i32 5
  %167 = load ptr, ptr %166, align 8
  %168 = load i32, ptr %8, align 4
  %169 = sext i32 %168 to i64
  %170 = getelementptr inbounds i64, ptr %167, i64 %169
  store i64 0, ptr %170, align 8
  %171 = load ptr, ptr %4, align 8
  %172 = getelementptr inbounds nuw %struct.TupleTableSlot, ptr %171, i32 0, i32 6
  %173 = load ptr, ptr %172, align 8
  %174 = load i32, ptr %8, align 4
  %175 = sext i32 %174 to i64
  %176 = getelementptr inbounds i8, ptr %173, i64 %175
  store i8 1, ptr %176, align 1
  br label %177

177:                                              ; preds = %164, %163
  call void @llvm.lifetime.end.p0(i64 4, ptr %10) #12
  call void @llvm.lifetime.end.p0(i64 8, ptr %9) #12
  br label %178

178:                                              ; preds = %177
  %179 = load i32, ptr %8, align 4
  %180 = add i32 %179, 1
  store i32 %180, ptr %8, align 4
  br label %23, !llvm.loop !14

181:                                              ; preds = %23
  %182 = load ptr, ptr %4, align 8
  %183 = call ptr @ExecStoreVirtualTuple(ptr noundef %182)
  call void @llvm.lifetime.end.p0(i64 4, ptr %8) #12
  call void @llvm.lifetime.end.p0(i64 4, ptr %7) #12
  ret void
}