; Function Attrs: nounwind uwtable
define internal fastcc void @slot_store_data(ptr noundef %0, ptr noundef readonly captures(none) %1, ptr noundef readonly captures(none) %2) unnamed_addr #0 {
  %4 = alloca i32, align 4
  %5 = alloca i32, align 4
  %6 = alloca i32, align 4
  %7 = alloca i32, align 4
  %8 = getelementptr inbounds nuw i8, ptr %0, i64 16
  %9 = load ptr, ptr %8, align 8
  %10 = load i32, ptr %9, align 8
  %11 = getelementptr inbounds nuw i8, ptr %0, i64 8
  %12 = load ptr, ptr %11, align 8
  %13 = getelementptr inbounds nuw i8, ptr %12, i64 24
  %14 = load ptr, ptr %13, align 8
  tail call void %14(ptr noundef %0) #17
  %15 = icmp sgt i32 %10, 0
  br i1 %15, label %.lr.ph, label %._crit_edge

.lr.ph:                                           ; preds = %3
  %16 = getelementptr inbounds nuw i8, ptr %1, i64 80
  %17 = getelementptr inbounds nuw i8, ptr %2, i64 8
  %18 = getelementptr inbounds nuw i8, ptr %0, i64 24
  %19 = getelementptr inbounds nuw i8, ptr %0, i64 32
  %wide.trip.count = zext nneg i32 %10 to i64
  br label %20

20:                                               ; preds = %.lr.ph, %90
  %indvars.iv = phi i64 [ 0, %.lr.ph ], [ %indvars.iv.next, %90 ]
  %21 = load ptr, ptr %8, align 8
  %22 = load i32, ptr %21, align 8
  %23 = sext i32 %22 to i64
  %24 = shl nsw i64 %23, 4
  %25 = getelementptr i8, ptr %21, i64 %24
  %26 = getelementptr i8, ptr %25, i64 24
  %27 = getelementptr inbounds nuw %struct.FormData_pg_attribute, ptr %26, i64 %indvars.iv
  %28 = load ptr, ptr %16, align 8
  %29 = load ptr, ptr %28, align 8
  %30 = getelementptr inbounds nuw i16, ptr %29, i64 %indvars.iv
  %31 = load i16, ptr %30, align 2
  %32 = sext i16 %31 to i32
  %33 = getelementptr inbounds nuw i8, ptr %27, i64 91
  %34 = load i8, ptr %33, align 1, !range !4, !noundef !5
  %35 = trunc nuw i8 %34 to i1
  %36 = icmp slt i16 %31, 0
  %or.cond.not = select i1 %35, i1 true, i1 %36
  br i1 %or.cond.not, label %85, label %37

37:                                               ; preds = %20
  %38 = load ptr, ptr %2, align 8
  %39 = zext nneg i32 %32 to i64
  %40 = getelementptr inbounds nuw %struct.StringInfoData, ptr %38, i64 %39
  store i32 %32, ptr @apply_error_callback_arg.2, align 8
  %41 = load ptr, ptr %17, align 8
  %42 = getelementptr inbounds nuw i8, ptr %41, i64 %39
  %43 = load i8, ptr %42, align 1
  switch i8 %43, label %79 [
    i8 116, label %44
    i8 98, label %57
  ]

44:                                               ; preds = %37
  call void @llvm.lifetime.start.p0(i64 4, ptr nonnull %4) #17
  call void @llvm.lifetime.start.p0(i64 4, ptr nonnull %5) #17
  %45 = getelementptr inbounds nuw i8, ptr %27, i64 68
  %46 = load i32, ptr %45, align 4
  call void @getTypeInputInfo(i32 noundef %46, ptr noundef nonnull %4, ptr noundef nonnull %5) #17
  %47 = load i32, ptr %4, align 4
  %48 = load ptr, ptr %40, align 8
  %49 = load i32, ptr %5, align 4
  %50 = getelementptr inbounds nuw i8, ptr %27, i64 76
  %51 = load i32, ptr %50, align 4
  %52 = call i64 @OidInputFunctionCall(i32 noundef %47, ptr noundef %48, i32 noundef %49, i32 noundef %51) #17
  %53 = load ptr, ptr %18, align 8
  %54 = getelementptr inbounds nuw i64, ptr %53, i64 %indvars.iv
  store i64 %52, ptr %54, align 8
  %55 = load ptr, ptr %19, align 8
  %56 = getelementptr inbounds nuw i8, ptr %55, i64 %indvars.iv
  store i8 0, ptr %56, align 1
  call void @llvm.lifetime.end.p0(i64 4, ptr nonnull %5) #17
  call void @llvm.lifetime.end.p0(i64 4, ptr nonnull %4) #17
  br label %84

57:                                               ; preds = %37
  call void @llvm.lifetime.start.p0(i64 4, ptr nonnull %6) #17
  call void @llvm.lifetime.start.p0(i64 4, ptr nonnull %7) #17
  %58 = getelementptr inbounds nuw i8, ptr %40, i64 16
  store i32 0, ptr %58, align 8
  %59 = getelementptr inbounds nuw i8, ptr %27, i64 68
  %60 = load i32, ptr %59, align 4
  call void @getTypeBinaryInputInfo(i32 noundef %60, ptr noundef nonnull %6, ptr noundef nonnull %7) #17
  %61 = load i32, ptr %6, align 4
  %62 = load i32, ptr %7, align 4
  %63 = getelementptr inbounds nuw i8, ptr %27, i64 76
  %64 = load i32, ptr %63, align 4
  %65 = call i64 @OidReceiveFunctionCall(i32 noundef %61, ptr noundef %40, i32 noundef %62, i32 noundef %64) #17
  %66 = load ptr, ptr %18, align 8
  %67 = getelementptr inbounds nuw i64, ptr %66, i64 %indvars.iv
  store i64 %65, ptr %67, align 8
  %68 = load i32, ptr %58, align 8
  %69 = getelementptr inbounds nuw i8, ptr %40, i64 8
  %70 = load i32, ptr %69, align 8
  %.not = icmp eq i32 %68, %70
  br i1 %.not, label %76, label %71

71:                                               ; preds = %57
  %72 = call zeroext i1 @errstart_cold(i32 noundef 21, ptr noundef null) #18
  call void @llvm.assume(i1 %72)
  %73 = call i32 @errcode(i32 noundef 50462850) #17
  %74 = add nuw nsw i32 %32, 1
  %75 = call i32 (ptr, ...) @errmsg(ptr noundef nonnull @.str.50, i32 noundef %74) #17
  call void @errfinish(ptr noundef nonnull @.str.3, i32 noundef 852, ptr noundef nonnull @__func__.slot_store_data) #17
  unreachable

76:                                               ; preds = %57
  %77 = load ptr, ptr %19, align 8
  %78 = getelementptr inbounds nuw i8, ptr %77, i64 %indvars.iv
  store i8 0, ptr %78, align 1
  call void @llvm.lifetime.end.p0(i64 4, ptr nonnull %7) #17
  call void @llvm.lifetime.end.p0(i64 4, ptr nonnull %6) #17
  br label %84

79:                                               ; preds = %37
  %80 = load ptr, ptr %18, align 8
  %81 = getelementptr inbounds nuw i64, ptr %80, i64 %indvars.iv
  store i64 0, ptr %81, align 8
  %82 = load ptr, ptr %19, align 8
  %83 = getelementptr inbounds nuw i8, ptr %82, i64 %indvars.iv
  store i8 1, ptr %83, align 1
  br label %84

84:                                               ; preds = %76, %79, %44
  store i32 -1, ptr @apply_error_callback_arg.2, align 8
  br label %90

85:                                               ; preds = %20
  %86 = load ptr, ptr %18, align 8
  %87 = getelementptr inbounds nuw i64, ptr %86, i64 %indvars.iv
  store i64 0, ptr %87, align 8
  %88 = load ptr, ptr %19, align 8
  %89 = getelementptr inbounds nuw i8, ptr %88, i64 %indvars.iv
  store i8 1, ptr %89, align 1
  br label %90

90:                                               ; preds = %85, %84
  %indvars.iv.next = add nuw nsw i64 %indvars.iv, 1
  %exitcond.not = icmp eq i64 %indvars.iv.next, %wide.trip.count
  br i1 %exitcond.not, label %._crit_edge, label %20, !llvm.loop !14

._crit_edge:                                      ; preds = %90, %3
  %91 = call ptr @ExecStoreVirtualTuple(ptr noundef nonnull %0) #17
  ret void
}